; ModuleID = '23/66.c'
source_filename = "23/66.c"
target datalayout = "e-m:e-p270:32:32-p271:32:32-p272:64:64-i64:64-f80:128-n8:16:32:64-S128"
target triple = "x86_64-pc-linux-gnu"

@.str = private unnamed_addr constant [3 x i8] c"%c\00", align 1
@.str.1 = private unnamed_addr constant [2 x i8] c" \00", align 1

; Function Attrs: noinline nounwind uwtable
define dso_local i32 @main() #0 {
  %1 = alloca i32, align 4
  %2 = alloca i32, align 4
  %3 = alloca i32, align 4
  %4 = alloca i32, align 4
  %5 = alloca i32, align 4
  %6 = alloca [100 x i32], align 16
  %7 = alloca [101 x i8], align 16
  %8 = alloca [100 x [100 x i8]], align 16
  store i32 0, i32* %1, align 4
  store i32 0, i32* %5, align 4
  %9 = bitcast [100 x i32]* %6 to i8*
  call void @llvm.memset.p0i8.i64(i8* align 16 %9, i8 0, i64 400, i1 false)
  %10 = getelementptr inbounds [101 x i8], [101 x i8]* %7, i64 0, i64 0
  %11 = call i32 (i8*, ...) bitcast (i32 (...)* @gets to i32 (i8*, ...)*)(i8* %10)
  %12 = getelementptr inbounds [101 x i8], [101 x i8]* %7, i64 0, i64 0
  %13 = load i8, i8* %12, align 16
  %14 = sext i8 %13 to i32
  %15 = icmp eq i32 %14, 32
  br i1 %15, label %16, label %17

16:                                               ; preds = %0
  store i32 0, i32* %4, align 4
  br label %18

17:                                               ; preds = %0
  store i32 1, i32* %4, align 4
  br label %18

18:                                               ; preds = %17, %16
  store i32 1, i32* %2, align 4
  br label %19

19:                                               ; preds = %74, %18
  %20 = load i32, i32* %2, align 4
  %21 = sub nsw i32 %20, 1
  %22 = sext i32 %21 to i64
  %23 = getelementptr inbounds [101 x i8], [101 x i8]* %7, i64 0, i64 %22
  %24 = load i8, i8* %23, align 1
  %25 = sext i8 %24 to i32
  %26 = icmp ne i32 %25, 0
  br i1 %26, label %27, label %77

27:                                               ; preds = %19
  %28 = load i32, i32* %4, align 4
  %29 = icmp eq i32 %28, 1
  br i1 %29, label %30, label %59

30:                                               ; preds = %27
  %31 = load i32, i32* %2, align 4
  %32 = sub nsw i32 %31, 1
  %33 = sext i32 %32 to i64
  %34 = getelementptr inbounds [101 x i8], [101 x i8]* %7, i64 0, i64 %33
  %35 = load i8, i8* %34, align 1
  %36 = load i32, i32* %5, align 4
  %37 = sext i32 %36 to i64
  %38 = getelementptr inbounds [100 x [100 x i8]], [100 x [100 x i8]]* %8, i64 0, i64 %37
  %39 = load i32, i32* %5, align 4
  %40 = sext i32 %39 to i64
  %41 = getelementptr inbounds [100 x i32], [100 x i32]* %6, i64 0, i64 %40
  %42 = load i32, i32* %41, align 4
  %43 = sext i32 %42 to i64
  %44 = getelementptr inbounds [100 x i8], [100 x i8]* %38, i64 0, i64 %43
  store i8 %35, i8* %44, align 1
  %45 = load i32, i32* %5, align 4
  %46 = sext i32 %45 to i64
  %47 = getelementptr inbounds [100 x i32], [100 x i32]* %6, i64 0, i64 %46
  %48 = load i32, i32* %47, align 4
  %49 = add nsw i32 %48, 1
  store i32 %49, i32* %47, align 4
  %50 = load i32, i32* %2, align 4
  %51 = sext i32 %50 to i64
  %52 = getelementptr inbounds [101 x i8], [101 x i8]* %7, i64 0, i64 %51
  %53 = load i8, i8* %52, align 1
  %54 = sext i8 %53 to i32
  %55 = icmp ne i32 %54, 32
  br i1 %55, label %56, label %57

56:                                               ; preds = %30
  store i32 1, i32* %4, align 4
  br label %58

57:                                               ; preds = %30
  store i32 0, i32* %4, align 4
  br label %58

58:                                               ; preds = %57, %56
  br label %74

59:                                               ; preds = %27
  %60 = load i32, i32* %4, align 4
  %61 = icmp eq i32 %60, 0
  br i1 %61, label %62, label %73

62:                                               ; preds = %59
  %63 = load i32, i32* %2, align 4
  %64 = sext i32 %63 to i64
  %65 = getelementptr inbounds [101 x i8], [101 x i8]* %7, i64 0, i64 %64
  %66 = load i8, i8* %65, align 1
  %67 = sext i8 %66 to i32
  %68 = icmp ne i32 %67, 32
  br i1 %68, label %69, label %72

69:                                               ; preds = %62
  %70 = load i32, i32* %5, align 4
  %71 = add nsw i32 %70, 1
  store i32 %71, i32* %5, align 4
  store i32 1, i32* %4, align 4
  br label %72

72:                                               ; preds = %69, %62
  br label %73

73:                                               ; preds = %72, %59
  br label %74

74:                                               ; preds = %73, %58
  %75 = load i32, i32* %2, align 4
  %76 = add nsw i32 %75, 1
  store i32 %76, i32* %2, align 4
  br label %19

77:                                               ; preds = %19
  %78 = load i32, i32* %5, align 4
  store i32 %78, i32* %2, align 4
  br label %79

79:                                               ; preds = %109, %77
  %80 = load i32, i32* %2, align 4
  %81 = icmp sge i32 %80, 0
  br i1 %81, label %82, label %112

82:                                               ; preds = %79
  store i32 0, i32* %3, align 4
  br label %83

83:                                               ; preds = %100, %82
  %84 = load i32, i32* %3, align 4
  %85 = load i32, i32* %2, align 4
  %86 = sext i32 %85 to i64
  %87 = getelementptr inbounds [100 x i32], [100 x i32]* %6, i64 0, i64 %86
  %88 = load i32, i32* %87, align 4
  %89 = icmp slt i32 %84, %88
  br i1 %89, label %90, label %103

90:                                               ; preds = %83
  %91 = load i32, i32* %2, align 4
  %92 = sext i32 %91 to i64
  %93 = getelementptr inbounds [100 x [100 x i8]], [100 x [100 x i8]]* %8, i64 0, i64 %92
  %94 = load i32, i32* %3, align 4
  %95 = sext i32 %94 to i64
  %96 = getelementptr inbounds [100 x i8], [100 x i8]* %93, i64 0, i64 %95
  %97 = load i8, i8* %96, align 1
  %98 = sext i8 %97 to i32
  %99 = call i32 (i8*, ...) @printf(i8* getelementptr inbounds ([3 x i8], [3 x i8]* @.str, i64 0, i64 0), i32 %98)
  br label %100

100:                                              ; preds = %90
  %101 = load i32, i32* %3, align 4
  %102 = add nsw i32 %101, 1
  store i32 %102, i32* %3, align 4
  br label %83

103:                                              ; preds = %83
  %104 = load i32, i32* %2, align 4
  %105 = icmp sge i32 %104, 1
  br i1 %105, label %106, label %108

106:                                              ; preds = %103
  %107 = call i32 (i8*, ...) @printf(i8* getelementptr inbounds ([2 x i8], [2 x i8]* @.str.1, i64 0, i64 0))
  br label %108

108:                                              ; preds = %106, %103
  br label %109

109:                                              ; preds = %108
  %110 = load i32, i32* %2, align 4
  %111 = add nsw i32 %110, -1
  store i32 %111, i32* %2, align 4
  br label %79

112:                                              ; preds = %79
  %113 = load i32, i32* %1, align 4
  ret i32 %113
}

; Function Attrs: argmemonly nounwind willreturn
declare void @llvm.memset.p0i8.i64(i8* nocapture writeonly, i8, i64, i1 immarg) #1

declare dso_local i32 @gets(...) #2

declare dso_local i32 @printf(i8*, ...) #2


!llvm.module.flags = !{!0}
!llvm.ident = !{!1}

!0 = !{i32 1, !"wchar_size", i32 4}
!1 = !{!"clang version 10.0.0-4ubuntu1 "}
